target datalayout = "e-m:e-p270:32:32-p271:32:32-p272:64:64-i64:64-i128:128-f80:128-n8:16:32:64-S128"
target triple = "x86_64-pc-linux-gnu"

; Function Attrs: mustprogress nounwind uwtable
define internal noundef i32 @_ZN6icu_77L25gregoYearFromIslamicStartEi(i32 noundef %0) #0 {
  %2 = alloca i32, align 4
  %3 = alloca i32, align 4
  %4 = alloca i32, align 4
  %5 = alloca i32, align 4
  store i32 %0, ptr %2, align 4, !tbaa !17
  call void @llvm.lifetime.start.p0(i64 4, ptr %3) #8
  call void @llvm.lifetime.start.p0(i64 4, ptr %4) #8
  call void @llvm.lifetime.start.p0(i64 4, ptr %5) #8
  store i32 0, ptr %5, align 4, !tbaa !17
  %6 = load i32, ptr %2, align 4, !tbaa !17
  %7 = icmp sge i32 %6, 1397
  br i1 %7, label %8, label %21

8:                                                ; preds = %1
  %9 = load i32, ptr %2, align 4, !tbaa !17
  %10 = sub nsw i32 %9, 1397
  %11 = sdiv i32 %10, 67
  store i32 %11, ptr %3, align 4, !tbaa !17
  %12 = load i32, ptr %2, align 4, !tbaa !17
  %13 = sub nsw i32 %12, 1397
  %14 = srem i32 %13, 67
  store i32 %14, ptr %4, align 4, !tbaa !17
  %15 = load i32, ptr %3, align 4, !tbaa !17
  %16 = mul nsw i32 2, %15
  %17 = load i32, ptr %4, align 4, !tbaa !17
  %18 = icmp sge i32 %17, 33
  %19 = select i1 %18, i32 1, i32 0
  %20 = add nsw i32 %16, %19
  store i32 %20, ptr %5, align 4, !tbaa !17
  br label %36

21:                                               ; preds = %1
  %22 = load i32, ptr %2, align 4, !tbaa !17
  %23 = sub nsw i32 %22, 1396
  %24 = sdiv i32 %23, 67
  %25 = sub nsw i32 %24, 1
  store i32 %25, ptr %3, align 4, !tbaa !17
  %26 = load i32, ptr %2, align 4, !tbaa !17
  %27 = sub nsw i32 %26, 1396
  %28 = sub nsw i32 0, %27
  %29 = srem i32 %28, 67
  store i32 %29, ptr %4, align 4, !tbaa !17
  %30 = load i32, ptr %3, align 4, !tbaa !17
  %31 = mul nsw i32 2, %30
  %32 = load i32, ptr %4, align 4, !tbaa !17
  %33 = icmp sle i32 %32, 33
  %34 = select i1 %33, i32 1, i32 0
  %35 = add nsw i32 %31, %34
  store i32 %35, ptr %5, align 4, !tbaa !17
  br label %36

36:                                               ; preds = %21, %8
  %37 = load i32, ptr %2, align 4, !tbaa !17
  %38 = add nsw i32 %37, 579
  %39 = load i32, ptr %5, align 4, !tbaa !17
  %40 = sub nsw i32 %38, %39
  call void @llvm.lifetime.end.p0(i64 4, ptr %5) #8
  call void @llvm.lifetime.end.p0(i64 4, ptr %4) #8
  call void @llvm.lifetime.end.p0(i64 4, ptr %3) #8
  ret i32 %40
}

; Function Attrs: inlinehint mustprogress nounwind uwtable
define internal noundef signext i8 @_ZL9U_FAILURE10UErrorCode(i32 noundef %0) #4 {
  %2 = alloca i32, align 4
  store i32 %0, ptr %2, align 4, !tbaa !19
  %3 = load i32, ptr %2, align 4, !tbaa !19
  %4 = icmp sgt i32 %3, 0
  %5 = zext i1 %4 to i8
  ret i8 %5
}

; Function Attrs: mustprogress uwtable
define noundef i32 @_ZNK6icu_7715IslamicCalendar14getRelatedYearER10UErrorCode(ptr noundef nonnull align 8 dereferenceable(192) %0, ptr noundef nonnull align 4 dereferenceable(4) %1) unnamed_addr #1 align 2 {
  %3 = alloca i32, align 4
  %4 = alloca ptr, align 8
  %5 = alloca ptr, align 8
  %6 = alloca i32, align 4
  %7 = alloca i32, align 4
  store ptr %0, ptr %4, align 8, !tbaa !3
  store ptr %1, ptr %5, align 8, !tbaa !12
  %8 = load ptr, ptr %4, align 8
  call void @llvm.lifetime.start.p0(i64 4, ptr %6) #8
  %9 = load ptr, ptr %5, align 8, !tbaa !12
  %10 = call noundef i32 @_ZNK6icu_778Calendar3getE19UCalendarDateFieldsR10UErrorCode(ptr noundef nonnull align 8 dereferenceable(192) %8, i32 noundef 19, ptr noundef nonnull align 4 dereferenceable(4) %9)
  store i32 %10, ptr %6, align 4, !tbaa !17
  %11 = load ptr, ptr %5, align 8, !tbaa !12
  %12 = load i32, ptr %11, align 4, !tbaa !19
  %13 = call noundef signext i8 @_ZL9U_FAILURE10UErrorCode(i32 noundef %12)
  %14 = icmp ne i8 %13, 0
  br i1 %14, label %15, label %16

15:                                               ; preds = %2
  store i32 0, ptr %3, align 4
  store i32 1, ptr %7, align 4
  br label %19

16:                                               ; preds = %2
  %17 = load i32, ptr %6, align 4, !tbaa !17
  %18 = call noundef i32 @_ZN6icu_77L25gregoYearFromIslamicStartEi(i32 noundef %17)
  store i32 %18, ptr %3, align 4
  store i32 1, ptr %7, align 4
  br label %19

19:                                               ; preds = %16, %15
  call void @llvm.lifetime.end.p0(i64 4, ptr %6) #8
  %20 = load i32, ptr %3, align 4
  ret i32 %20
}