; Function Attrs: mustprogress uwtable
define noundef i32 @_ZNK6icu_7715IslamicCalendar14getRelatedYearER10UErrorCode(ptr noundef nonnull align 8 dereferenceable(192) %0, ptr noundef nonnull align 4 dereferenceable(4) %1) unnamed_addr #1 align 2 {
  %3 = tail call noundef i32 @_ZNK6icu_778Calendar3getE19UCalendarDateFieldsR10UErrorCode(ptr noundef nonnull align 8 dereferenceable(192) %0, i32 noundef 19, ptr noundef nonnull align 4 dereferenceable(4) %1)
  %4 = load i32, ptr %1, align 4, !tbaa !9
  %5 = icmp slt i32 %4, 1
  br i1 %5, label %6, label %21

6:                                                ; preds = %2
  %7 = icmp sgt i32 %3, 1396
  br i1 %7, label %8, label %14

8:                                                ; preds = %6
  %9 = add nsw i32 %3, -1397
  %10 = udiv i32 %9, 67
  %11 = urem i32 %9, 67
  %12 = icmp samesign ugt i32 %11, 32
  %.neg12.i = sext i1 %12 to i32
  %13 = shl nuw nsw i32 %10, 1
  %.neg13.i = sub nsw i32 %.neg12.i, %13
  br label %_ZN6icu_77L25gregoYearFromIslamicStartEi.exit

14:                                               ; preds = %6
  %.nonneg.i = sub i32 1396, %3
  %15 = udiv i32 %.nonneg.i, 67
  %16 = urem i32 %.nonneg.i, 67
  %17 = shl nuw nsw i32 %15, 1
  %18 = icmp samesign ult i32 %16, 34
  %.neg.i = sext i1 %18 to i32
  %reass.sub.neg.i = add nuw nsw i32 %17, 2
  %.neg14.i = add nsw i32 %reass.sub.neg.i, %.neg.i
  br label %_ZN6icu_77L25gregoYearFromIslamicStartEi.exit

_ZN6icu_77L25gregoYearFromIslamicStartEi.exit:    ; preds = %8, %14
  %.0.neg15.i = phi i32 [ %.neg13.i, %8 ], [ %.neg14.i, %14 ]
  %19 = add nsw i32 %3, 579
  %20 = add i32 %19, %.0.neg15.i
  br label %21

21:                                               ; preds = %2, %_ZN6icu_77L25gregoYearFromIslamicStartEi.exit
  %.0 = phi i32 [ %20, %_ZN6icu_77L25gregoYearFromIslamicStartEi.exit ], [ 0, %2 ]
  ret i32 %.0
}